(dp1
((I11
I1
tp2
(I7
I1
tp3
tp4
I0
s((I19
I1
tp5
g3
tp6
I0
s((I11
I3
tp7
(I5
I3
tp8
tp9
I0
s((I6
I3
tp10
(I3
I3
tp11
tp12
I0
s((I9
I3
tp13
(I1
I3
tp14
tp15
I0
s(g14
(I12
I3
tp16
tp17
I0
s((I10
I3
tp18
(I13
I1
tp19
tp20
I0
s((I9
I1
tp21
(I6
I1
tp22
tp23
I0
s((I5
I1
tp24
(I18
I3
tp25
tp26
I0
s(g14
g22
tp27
I0
s(g13
(I4
I3
tp28
tp29
I0
s(g21
(I15
I1
tp30
tp31
I0
s(g10
(I2
I3
tp32
tp33
I0
s((I12
I1
tp34
(I15
I3
tp35
tp36
I0
s(g8
(I1
I2
tp37
tp38
I0
s((I8
I3
tp39
g34
tp40
I0
s(g28
g22
tp41
I0
s(g11
g22
tp42
I0
s(g11
(I21
I0
tp43
tp44
I0
s(g35
(I8
I1
tp45
tp46
I0
s(g35
g18
tp47
I0
s(g34
(I17
I1
tp48
tp49
I0
s(g45
(I14
I1
tp50
tp51
I0
s(g28
(I20
I3
tp52
tp53
I0
s(g25
(I17
I3
tp54
tp55
F0.5
s(g11
g7
tp56
I0
s((I16
I3
tp57
g24
tp58
I0
s((I20
I0
tp59
g19
tp60
I0
s((I16
I1
tp61
g30
tp62
I0
s(g30
g61
tp63
F0.59999999999999998
s(g3
(I19
I3
tp64
tp65
I0
s(g5
g50
tp66
I0
s((I7
I3
tp67
(I20
I1
tp68
tp69
I0
s(g24
g43
tp70
I0
s(g48
g21
tp71
I0
s(g52
(I14
I3
tp72
tp73
I0
s(g39
(I21
I3
tp74
tp75
I0
s(g74
g59
tp76
I0
s(g45
g59
tp77
I0
s((I21
I1
tp78
g48
tp79
I0
s(g16
g19
tp80
I0
s(g19
g74
tp81
I0
s(g67
g45
tp82
I0
s(g2
g14
tp83
I0
s(g37
g8
tp84
I0
s((I18
I1
tp85
g16
tp86
I0
s(g64
g7
tp87
I0
s(g32
g5
tp88
I0
s(g5
g37
tp89
I0
s(g18
g50
tp90
I0
s(g34
g45
tp91
I0
s(g24
g11
tp92
I0
s((I10
I1
tp93
g2
tp94
F0.5714285714285714
s(g37
g21
tp95
I0
s(g25
g13
tp96
I0
s(g22
g39
tp97
I0
s(g52
g19
tp98
I0
s(g39
g85
tp99
I0
s(g3
g72
tp100
I0
s(g48
g52
tp101
I0
s((I13
I3
tp102
g85
tp103
I0
s(g21
g5
tp104
I0
s(g74
g2
tp105
I0
s(g30
g57
tp106
I0
s(g7
g52
tp107
I0
s(g52
g48
tp108
I0
s(g45
g5
tp109
I0
s(g34
g18
tp110
I0
s(g78
g8
tp111
I0
s(g11
g2
tp112
I0
s(g32
g59
tp113
I0
s(g59
g11
tp114
I0
s(g7
g13
tp115
I0
s(g32
g7
tp116
I0
s(g61
g13
tp117
I0
s(g72
g5
tp118
I0
s(g35
g35
tp119
F0.33333333333333331
s(g64
g35
tp120
I0
s(g37
g37
tp121
F0.99758777807558296
s(g24
g72
tp122
I0
s(g102
g34
tp123
I0
s(g72
g72
tp124
F0.45454545454545453
s(g67
g52
tp125
I0
s(g16
g10
tp126
I0
s(g16
g85
tp127
I0
s(g74
g11
tp128
I0
s(g74
g30
tp129
I0
s(g78
g5
tp130
I0
s(g14
g68
tp131
I0
s(g22
g34
tp132
I0
s(g13
g78
tp133
I0
s(g5
g57
tp134
I0
s(g24
g5
tp135
I0
s(g32
g8
tp136
I0
s(g11
g78
tp137
I0
s(g64
g93
tp138
I0
s(g11
g72
tp139
I0
s(g18
g59
tp140
I0
s(g19
g2
tp141
I0
s(g39
g102
tp142
I0
s(g10
g43
tp143
I0
s(g45
g19
tp144
I0
s(g8
g8
tp145
F0.47826086956521741
s(g18
g2
tp146
I0
s(g85
g74
tp147
I0
s(g35
g59
tp148
I0
s(g54
g10
tp149
I0
s(g43
g22
tp150
I0
s(g39
g13
tp151
I0
s(g52
g5
tp152
I0
s(g19
g28
tp153
I0
s(g8
g78
tp154
I0
s(g7
g30
tp155
I0
s(g45
g54
tp156
I0
s(g24
g32
tp157
I0
s(g32
g30
tp158
I0
s(g59
g74
tp159
I0
s(g37
g28
tp160
I0
s(g54
g102
tp161
I0
s(g50
g2
tp162
I0
s(g64
g3
tp163
I0
s(g43
g61
tp164
I0
s(g10
g102
tp165
I0
s(g13
g24
tp166
I0
s(g37
g24
tp167
I0
s(g67
g59
tp168
I0
s(g102
g68
tp169
I0
s(g45
g61
tp170
I0
s(g13
g2
tp171
I0
s(g18
g11
tp172
I0
s(g7
g25
tp173
I0
s(g10
g67
tp174
I0
s(g3
g21
tp175
I0
s(g61
g102
tp176
I0
s(g67
g24
tp177
I0
s(g37
g72
tp178
I0
s(g2
g5
tp179
I0
s(g50
g52
tp180
I0
s(g22
g5
tp181
I0
s(g57
g39
tp182
I0
s(g54
g45
tp183
I0
s(g61
g39
tp184
I0
s(g16
g21
tp185
I0
s(g39
g30
tp186
I0
s(g14
g3
tp187
I0
s(g45
g24
tp188
I0
s(g13
g3
tp189
I0
s(g18
g22
tp190
I0
s(g102
g7
tp191
I0
s(g3
g50
tp192
I0
s(g13
g19
tp193
I0
s(g50
g18
tp194
I0
s(g11
g37
tp195
I0
s(g32
g45
tp196
I0
s(g34
g39
tp197
I0
s(g2
g16
tp198
I0
s(g48
g93
tp199
I0
s(g13
g34
tp200
I0
s(g24
g3
tp201
I0
s(g5
g28
tp202
I0
s(g45
g28
tp203
I0
s(g39
g14
tp204
I0
s(g22
g18
tp205
I0
s(g24
g19
tp206
I0
s(g68
g67
tp207
I0
s(g28
g21
tp208
I0
s(g34
g93
tp209
I0
s(g7
g45
tp210
I0
s(g24
g74
tp211
I0
s(g30
g25
tp212
I0
s(g3
g35
tp213
I0
s(g18
g18
tp214
F0.40000000000000002
s(g45
g45
tp215
F0.52000000000000002
s(g5
g78
tp216
I0
s(g54
g3
tp217
I0
s(g54
g67
tp218
I0
s(g48
g19
tp219
I0
s(g3
g68
tp220
I0
s(g21
g54
tp221
I0
s(g59
g13
tp222
I0
s(g48
g18
tp223
I0
s(g67
g35
tp224
I0
s(g34
g61
tp225
I0
s(g25
g3
tp226
I0
s(g61
g34
tp227
I0
s(g64
g18
tp228
I0
s(g93
g59
tp229
I0
s(g35
g10
tp230
I0
s(g54
g68
tp231
I0
s(g64
g52
tp232
I0
s(g72
g93
tp233
I0
s(g3
g28
tp234
I0
s(g28
g72
tp235
I0
s(g18
g93
tp236
I0
s(g61
g67
tp237
I0
s(g22
g19
tp238
I0
s(g25
g48
tp239
I0
s(g48
g39
tp240
I0
s(g37
g32
tp241
I0
s(g34
g50
tp242
I0
s(g45
g35
tp243
I0
s(g85
g22
tp244
I0
s(g13
g8
tp245
I0
s(g39
g5
tp246
I0
s(g25
g22
tp247
I0
s(g30
g93
tp248
I0
s(g74
g57
tp249
I0
s(g30
g67
tp250
I0
s(g48
g102
tp251
I0
s(g32
g78
tp252
I0
s(g35
g52
tp253
I0
s(g28
g67
tp254
I0
s(g50
g19
tp255
I0
s(g34
g11
tp256
I0
s(g102
g72
tp257
I0
s(g19
g57
tp258
I0
s(g67
g67
tp259
F0.40000000000000002
s(g48
g13
tp260
I0
s(g24
g57
tp261
I0
s(g32
g93
tp262
I0
s(g85
g8
tp263
I0
s(g43
g7
tp264
I0
s(g14
g61
tp265
I0
s(g59
g30
tp266
I0
s(g13
g7
tp267
I0
s(g93
g93
tp268
F0.42857142857142855
s(g8
g32
tp269
I0
s(g48
g35
tp270
I0
s(g22
g14
tp271
I0
s(g13
g57
tp272
I0
s(g3
g48
tp273
I0
s(g37
g7
tp274
I0
s(g34
g5
tp275
I0
s(g28
g43
tp276
I0
s(g16
g34
tp277
I0
s(g18
g102
tp278
I0
s(g34
g67
tp279
I0
s(g54
g18
tp280
I0
s(g64
g37
tp281
I0
s(g8
g54
tp282
I0
s(g10
g14
tp283
I0
s(g8
g61
tp284
I0
s(g22
g11
tp285
I0
s(g68
g2
tp286
I0
s(g48
g50
tp287
I0
s(g43
g5
tp288
I0
s(g7
g32
tp289
I0
s(g67
g72
tp290
I0
s(g22
g16
tp291
I0
s(g2
g10
tp292
I0
s(g14
g32
tp293
I0
s(g22
g64
tp294
I0
s(g13
g32
tp295
I0
s(g68
g18
tp296
I0
s(g74
g74
tp297
F0.5
s(g8
g57
tp298
I0
s(g43
g35
tp299
I0
s(g54
g54
tp300
F0.40000000000000002
s(g19
g7
tp301
I0
s(g48
g30
tp302
I0
s(g10
g37
tp303
I0
s(g85
g11
tp304
I0
s(g21
g67
tp305
I0
s(g93
g57
tp306
I0
s(g2
g2
tp307
F0.47826086956521741
s(g16
g16
tp308
F0.29411764705882354
s(g39
g2
tp309
I0
s(g78
g32
tp310
I0
s(g2
g102
tp311
I0
s(g39
g93
tp312
I0
s(g102
g93
tp313
I0
s(g2
g8
tp314
I0
s(g24
g8
tp315
I0
s(g8
g11
tp316
I0
s(g5
g2
tp317
I0
s(g64
g16
tp318
I0
s(g61
g37
tp319
I0
s(g102
g10
tp320
I0
s(g30
g68
tp321
I0
s(g45
g72
tp322
I0
s(g57
g13
tp323
I0
s(g18
g35
tp324
I0
s(g39
g67
tp325
F0.52173913043478259
s(g8
g24
tp326
I0
s(g3
g18
tp327
I0
s(g11
g39
tp328
I0
s(g16
g48
tp329
I0
s(g59
g5
tp330
I0
s(g85
g2
tp331
I0
s(g32
g74
tp332
I0
s(g8
g18
tp333
I0
s(g35
g22
tp334
I0
s(g67
g93
tp335
I0
s(g78
g67
tp336
I0
s(g50
g30
tp337
F0.47999999999999998
s(g11
g102
tp338
I0
s(g10
g78
tp339
I0
s(g21
g32
tp340
I0
s(g67
g2
tp341
I0
s(g28
g45
tp342
I0
s(g2
g19
tp343
I0
s(g14
g11
tp344
I0
s(g50
g7
tp345
I0
s(g78
g30
tp346
I0
s(g68
g78
tp347
F0.008356545961002786
s(g78
g68
tp348
F0.005243838489774515
s(g5
g48
tp349
I0
s(g7
g85
tp350
I0
s(g24
g45
tp351
I0
s(g8
g43
tp352
I0
s(g50
g28
tp353
I0
s(g7
g7
tp354
F0.47826086956521741
s(g21
g13
tp355
I0
s(g7
g59
tp356
I0
s(g35
g93
tp357
I0
s(g14
g18
tp358
I0
s(g48
g54
tp359
I0
s(g25
g37
tp360
I0
s(g10
g52
tp361
I0
s(g59
g93
tp362
I0
s(g37
g74
tp363
I0
s(g18
g10
tp364
I0
s(g45
g13
tp365
I0
s(g10
g18
tp366
I0
s(g52
g32
tp367
I0
s(g32
g52
tp368
I0
s(g57
g37
tp369
I0
s(g16
g102
tp370
I0
s(g85
g7
tp371
I0
s(g68
g59
tp372
F0.0034818941504178272
s(g68
g7
tp373
I0
s(g25
g30
tp374
I0
s(g16
g18
tp375
I0
s(g34
g24
tp376
I0
s(g93
g52
tp377
I0
s(g35
g48
tp378
I0
s(g59
g48
tp379
I0
s(g48
g72
tp380
I0
s(g22
g61
tp381
I0
s(g16
g78
tp382
I0
s(g8
g59
tp383
I0
s(g8
g7
tp384
I0
s(g14
g43
tp385
I0
s(g16
g24
tp386
I0
s(g21
g68
tp387
I0
s(g13
g43
tp388
I0
s(g8
g10
tp389
I0
s(g64
g78
tp390
I0
s(g78
g13
tp391
I0
s(g30
g3
tp392
I0
s(g11
g93
tp393
I0
s(g13
g74
tp394
I0
s(g32
g68
tp395
I0
s(g16
g32
tp396
I0
s(g28
g61
tp397
I0
s(g21
g24
tp398
I0
s(g22
g67
tp399
I0
s(g67
g61
tp400
I0
s(g85
g5
tp401
F0.5714285714285714
s(g54
g50
tp402
I0
s(g57
g85
tp403
I0
s(g22
g25
tp404
I0
s(g13
g35
tp405
I0
s(g78
g28
tp406
I0
s(g72
g59
tp407
I0
s(g11
g24
tp408
I0
s(g16
g22
tp409
I0
s(g24
g28
tp410
I0
s(g19
g39
tp411
I0
s(g11
g35
tp412
I0
s(g59
g72
tp413
I0
s(g14
g7
tp414
I0
s(g5
g22
tp415
I0
s(g11
g18
tp416
I0
s(g48
g8
tp417
I0
s(g43
g11
tp418
I0
s(g39
g3
tp419
I0
s(g54
g78
tp420
I0
s(g52
g13
tp421
I0
s(g57
g7
tp422
I0
s(g3
g102
tp423
I0
s(g102
g61
tp424
I0
s(g74
g35
tp425
I0
s(g10
g2
tp426
I0
s(g21
g11
tp427
I0
s(g68
g30
tp428
I0
s(g24
g50
tp429
I0
s(g13
g68
tp430
I0
s(g37
g68
tp431
I0
s(g2
g30
tp432
I0
s(g72
g48
tp433
I0
s(g78
g24
tp434
I0
s(g10
g68
tp435
I0
s(g74
g68
tp436
I0
s(g11
g25
tp437
I0
s(g52
g85
tp438
I0
s(g21
g28
tp439
I0
s(g35
g11
tp440
I0
s(g35
g24
tp441
I0
s(g48
g37
tp442
I0
s(g34
g52
tp443
I0
s(g59
g52
tp444
I0
s(g19
g54
tp445
I0
s(g19
g35
tp446
I0
s(g64
g102
tp447
I0
s(g10
g3
tp448
I0
s(g43
g2
tp449
I0
s(g72
g3
tp450
I0
s(g10
g16
tp451
I0
s(g25
g34
tp452
I0
s(g19
g25
tp453
I0
s(g64
g25
tp454
F0.59999999999999998
s(g50
g8
tp455
I0
s(g85
g34
tp456
I0
s(g45
g11
tp457
I0
s(g52
g61
tp458
I0
s(g48
g67
tp459
I0
s(g72
g37
tp460
I0
s(g21
g7
tp461
I0
s(g8
g72
tp462
I0
s(g67
g18
tp463
I0
s(g2
g32
tp464
I0
s(g2
g35
tp465
I0
s(g5
g32
tp466
I0
s(g43
g52
tp467
I0
s(g3
g7
tp468
I0
s(g18
g64
tp469
I0
s(g25
g28
tp470
I0
s(g52
g28
tp471
I0
s(g50
g45
tp472
I0
s(g93
g22
tp473
I0
s(g64
g50
tp474
I0
s(g68
g45
tp475
I0
s(g11
g11
tp476
F0.45454545454545453
s(g13
g21
tp477
I0
s(g93
g74
tp478
I0
s(g32
g13
tp479
I0
s(g64
g43
tp480
I0
s(g14
g102
tp481
I0
s(g2
g13
tp482
I0
s(g57
g21
tp483
I0
s(g5
g59
tp484
I0
s(g64
g14
tp485
I0
s(g10
g93
tp486
I0
s(g54
g8
tp487
I0
s(g22
g93
tp488
I0
s(g57
g61
tp489
I0
s(g3
g10
tp490
I0
s(g54
g37
tp491
I0
s(g25
g8
tp492
I0
s(g102
g45
tp493
I0
s(g72
g57
tp494
I0
s(g74
g5
tp495
I0
s(g37
g48
tp496
I0
s(g22
g24
tp497
I0
s(g102
g54
tp498
I0
s(g34
g68
tp499
I0
s(g28
g3
tp500
I0
s(g50
g22
tp501
I0
s(g74
g28
tp502
I0
s(g67
g48
tp503
I0
s(g2
g21
tp504
I0
s(g30
g54
tp505
I0
s(g34
g57
tp506
I0
s(g16
g14
tp507
I0
s(g22
g3
tp508
F0.35714285714285715
s(g67
g78
tp509
I0
s(g74
g7
tp510
I0
s(g78
g35
tp511
I0
s(g24
g10
tp512
I0
s(g52
g3
tp513
I0
s(g7
g34
tp514
I0
s(g48
g74
tp515
I0
s(g21
g72
tp516
I0
s(g54
g28
tp517
I0
s(g10
g7
tp518
I0
s(g34
g85
tp519
I0
s(g13
g13
tp520
F0.47826086956521741
s(g24
g2
tp521
I0
s(g57
g64
tp522
I0
s(g28
g14
tp523
I0
s(g57
g45
tp524
I0
s(g11
g10
tp525
I0
s(g61
g85
tp526
I0
s(g68
g102
tp527
I0
s(g21
g3
tp528
I0
s(g48
g3
tp529
I0
s(g54
g7
tp530
I0
s(g52
g54
tp531
I0
s(g30
g24
tp532
I0
s(g102
g52
tp533
I0
s(g67
g34
tp534
I0
s(g37
g57
tp535
I0
s(g18
g5
tp536
I0
s(g59
g39
tp537
I0
s(g18
g45
tp538
I0
s(g78
g72
tp539
I0
s(g30
g11
tp540
I0
s(g54
g85
tp541
I0
s(g7
g28
tp542
I0
s(g72
g45
tp543
I0
s(g50
g74
tp544
I0
s(g59
g102
tp545
I0
s(g78
g21
tp546
I0
s(g52
g59
tp547
I0
s(g35
g19
tp548
I0
s(g57
g22
tp549
I0
s(g2
g34
tp550
F0.52173913043478259
s(g13
g37
tp551
I0
s(g68
g50
tp552
I0
s(g64
g11
tp553
I0
s(g32
g2
tp554
I0
s(g61
g57
tp555
I0
s(g18
g39
tp556
I0
s(g74
g102
tp557
I0
s(g45
g102
tp558
I0
s(g18
g7
tp559
I0
s(g72
g43
tp560
I0
s(g18
g30
tp561
I0
s(g61
g68
tp562
I0
s(g18
g43
tp563
I0
s(g14
g30
tp564
I0
s(g85
g37
tp565
I0
s(g54
g30
tp566
I0
s(g61
g64
tp567
I0
s(g3
g22
tp568
I0
s(g85
g43
tp569
I0
s(g43
g78
tp570
F0.00053590568060021436
s(g21
g21
tp571
F0.45454545454545453
s(g93
g7
tp572
I0
s(g74
g32
tp573
I0
s(g30
g43
tp574
I0
s(g68
g34
tp575
I0
s(g32
g11
tp576
I0
s(g61
g50
tp577
I0
s(g7
g37
tp578
I0
s(g52
g34
tp579
I0
s(g72
g25
tp580
I0
s(g10
g24
tp581
I0
s(g64
g54
tp582
I0
s(g8
g3
tp583
I0
s(g43
g24
tp584
I0
s(g19
g52
tp585
I0
s(g32
g43
tp586
I0
s(g72
g19
tp587
I0
s(g78
g2
tp588
I0
s(g25
g16
tp589
I0
s(g35
g68
tp590
I0
s(g68
g74
tp591
I0
s(g21
g52
tp592
I0
s(g18
g78
tp593
I0
s(g67
g30
tp594
I0
s(g37
g52
tp595
I0
s(g93
g102
tp596
I0
s(g93
g43
tp597
I0
s(g54
g32
tp598
I0
s(g30
g7
tp599
I0
s(g11
g52
tp600
I0
s(g3
g34
tp601
I0
s(g5
g11
tp602
I0
s(g102
g78
tp603
I0
s(g13
g52
tp604
I0
s(g93
g39
tp605
I0
s(g68
g37
tp606
I0
s(g11
g3
tp607
I0
s(g13
g18
tp608
I0
s(g7
g21
tp609
I0
s(g57
g74
tp610
I0
s(g102
g13
tp611
I0
s(g13
g59
tp612
I0
s(g54
g13
tp613
I0
s(g14
g59
tp614
I0
s(g28
g28
tp615
F0.42857142857142855
s(g59
g14
tp616
I0
s(g57
g43
tp617
I0
s(g24
g52
tp618
I0
s(g39
g7
tp619
I0
s(g45
g74
tp620
I0
s(g39
g59
tp621
I0
s(g61
g78
tp622
I0
s(g2
g37
tp623
I0
s(g52
g50
tp624
I0
s(g16
g64
tp625
I0
s(g30
g85
tp626
I0
s(g50
g5
tp627
I0
s(g28
g34
tp628
I0
s(g21
g64
tp629
I0
s(g10
g74
tp630
I0
s(g10
g10
tp631
F0.45454545454545453
s(g50
g39
tp632
I0
s(g16
g13
tp633
I0
s(g72
g14
tp634
I0
s(g13
g5
tp635
I0
s(g61
g2
tp636
I0
s(g67
g13
tp637
I0
s(g16
g3
tp638
I0
s(g39
g43
tp639
I0
s(g48
g14
tp640
I0
s(g10
g35
tp641
I0
s(g93
g68
tp642
I0
s(g67
g25
tp643
I0
s(g7
g5
tp644
I0
s(g25
g19
tp645
I0
s(g57
g18
tp646
I0
s(g72
g16
tp647
I0
s(g61
g10
tp648
I0
s(g16
g35
tp649
I0
s(g68
g68
tp650
F0.98607242339832868
s(g22
g2
tp651
I0
s(g93
g35
tp652
I0
s(g74
g45
tp653
I0
s(g7
g35
tp654
I0
s(g21
g39
tp655
I0
s(g52
g37
tp656
I0
s(g64
g45
tp657
I0
s(g57
g50
tp658
I0
s(g54
g39
tp659
I0
s(g28
g50
tp660
I0
s(g30
g102
tp661
I0
s(g61
g59
tp662
I0
s(g43
g57
tp663
I0
s(g39
g18
tp664
I0
s(g48
g34
tp665
I0
s(g93
g24
tp666
I0
s(g67
g43
tp667
I0
s(g35
g34
tp668
I0
s(g19
g85
tp669
I0
s(g45
g30
tp670
I0
s(g28
g85
tp671
I0
s(g5
g30
tp672
I0
s(g43
g37
tp673
I0
s(g74
g67
tp674
I0
s(g19
g22
tp675
I0
s(g43
g43
tp676
F0.99946409431939975
s(g32
g16
tp677
I0
s(g2
g72
tp678
I0
s(g18
g74
tp679
I0
s(g22
g32
tp680
I0
s(g74
g34
tp681
I0
s(g3
g37
tp682
I0
s(g39
g11
tp683
I0
s(g61
g48
tp684
F0.54545454545454541
s(g93
g32
tp685
I0
s(g78
g37
tp686
I0
s(g25
g18
tp687
I0
s(g13
g16
tp688
I0
s(g57
g102
tp689
I0
s(g8
g93
tp690
I0
s(g50
g43
tp691
I0
s(g24
g64
tp692
I0
s(g8
g50
tp693
I0
s(g25
g10
tp694
I0
s(g2
g74
tp695
I0
s(g59
g43
tp696
F0.00411522633744856
s(g35
g16
tp697
I0
s(g14
g54
tp698
I0
s(g18
g37
tp699
I0
s(g85
g24
tp700
I0
s(g67
g16
tp701
I0
s(g34
g102
tp702
I0
s(g57
g10
tp703
I0
s(g68
g22
tp704
I0
s(g45
g85
tp705
I0
s(g57
g5
tp706
I0
s(g93
g18
tp707
I0
s(g59
g59
tp708
F0.97736625514403297
s(g64
g32
tp709
I0
s(g10
g21
tp710
I0
s(g45
g37
tp711
I0
s(g54
g34
tp712
I0
s(g43
g85
tp713
I0
s(g37
g16
tp714
I0
s(g25
g67
tp715
I0
s(g3
g32
tp716
I0
s(g14
g93
tp717
I0
s(g74
g16
tp718
I0
s(g13
g93
tp719
I0
s(g67
g74
tp720
I0
s(g35
g57
tp721
I0
s(g59
g25
tp722
I0
s(g32
g24
tp723
I0
s(g93
g11
tp724
I0
s(g34
g7
tp725
I0
s(g68
g13
tp726
I0
s(g43
g68
tp727
I0
s(g11
g16
tp728
I0
s(g52
g78
tp729
I0
s(g2
g78
tp730
I0
s(g85
g35
tp731
I0
s(g74
g64
tp732
I0
s(g85
g45
tp733
I0
s(g7
g102
tp734
I0
s(g64
g57
tp735
I0
s(g59
g68
tp736
F0.00205761316872428
s(g19
g72
tp737
I0
s(g14
g24
tp738
I0
s(g39
g50
tp739
I0
s(g102
g50
tp740
I0
s(g59
g2
tp741
I0
s(g52
g68
tp742
I0
s(g45
g34
tp743
I0
s(g78
g7
tp744
I0
s(g24
g85
tp745
I0
s(g48
g7
tp746
I0
s(g72
g18
tp747
I0
s(g25
g74
tp748
I0
s(g48
g59
tp749
I0
s(g24
g48
tp750
I0
s(g5
g68
tp751
F0.54545454545454541
s(g93
g54
tp752
I0
s(g22
g72
tp753
I0
s(g25
g11
tp754
I0
s(g67
g32
tp755
I0
s(g57
g54
tp756
I0
s(g28
g102
tp757
I0
s(g74
g54
tp758
I0
s(g18
g72
tp759
I0
s(g67
g10
tp760
F0.59999999999999998
s(g48
g10
tp761
I0
s(g11
g48
tp762
I0
s(g68
g25
tp763
I0
s(g24
g67
tp764
I0
s(g52
g7
tp765
I0
s(g24
g59
tp766
I0
s(g102
g14
tp767
I0
s(g10
g13
tp768
I0
s(g28
g39
tp769
I0
s(g11
g54
tp770
I0
s(g19
g11
tp771
I0
s(g48
g32
tp772
I0
s(g59
g21
tp773
I0
s(g30
g30
tp774
F0.40000000000000002
s(g32
g48
tp775
I0
s(g35
g32
tp776
I0
s(g50
g59
tp777
I0
s(g45
g8
tp778
I0
s(g24
g78
tp779
I0
s(g85
g19
tp780
I0
s(g45
g48
tp781
I0
s(g64
g5
tp782
I0
s(g78
g78
tp783
F0.99108547456738327
s(g22
g30
tp784
I0
s(g59
g50
tp785
I0
s(g25
g64
tp786
I0
s(g74
g21
tp787
I0
s(g34
g37
tp788
I0
s(g2
g45
tp789
I0
s(g18
g8
tp790
I0
s(g25
g43
tp791
I0
s(g37
g50
tp792
I0
s(g93
g34
tp793
I0
s(g32
g3
tp794
I0
s(g5
g19
tp795
I0
s(g18
g67
tp796
I0
s(g25
g78
tp797
I0
s(g18
g85
tp798
I0
s(g64
g28
tp799
I0
s(g32
g72
tp800
I0
s(g57
g30
tp801
I0
s(g52
g39
tp802
I0
s(g59
g10
tp803
I0
s(g37
g18
tp804
I0
s(g68
g39
tp805
I0
s(g3
g59
tp806
I0
s(g21
g102
tp807
I0
s(g16
g45
tp808
I0
s(g11
g32
tp809
F0.54545454545454541
s(g67
g19
tp810
I0
s(g61
g52
tp811
I0
s(g64
g59
tp812
I0
s(g52
g67
tp813
I0
s(g25
g25
tp814
F0.5
s(g19
g30
tp815
I0
s(g3
g54
tp816
I0
s(g64
g34
tp817
I0
s(g74
g10
tp818
I0
s(g19
g93
tp819
I0
s(g14
g19
tp820
I0
s(g7
g68
tp821
I0
s(g45
g2
tp822
I0
s(g39
g72
tp823
I0
s(g30
g59
tp824
I0
s(g67
g8
tp825
I0
s(g37
g93
tp826
I0
s(g50
g54
tp827
I0
s(g59
g3
tp828
I0
s(g13
g30
tp829
I0
s(g50
g37
tp830
I0
s(g2
g25
tp831
I0
s(g22
g59
tp832
I0
s(g59
g34
tp833
I0
s(g13
g54
tp834
I0
s(g10
g22
tp835
I0
s(g2
g18
tp836
I0
s(g72
g54
tp837
I0
s(g3
g11
tp838
I0
s(g57
g67
tp839
I0
s(g25
g72
tp840
I0
s(g72
g64
tp841
I0
s(g22
g45
tp842
I0
s(g45
g32
tp843
I0
s(g57
g59
tp844
I0
s(g24
g37
tp845
I0
s(g11
g19
tp846
I0
s(g35
g2
tp847
I0
s(g2
g54
tp848
I0
s(g37
g2
tp849
I0
s(g57
g52
tp850
I0
s(g102
g48
tp851
I0
s(g74
g19
tp852
I0
s(g74
g13
tp853
I0
s(g5
g14
tp854
I0
s(g64
g19
tp855
I0
s(g59
g16
tp856
I0
s(g78
g14
tp857
I0
s(g43
g72
tp858
I0
s(g2
g93
tp859
I0
s(g74
g25
tp860
I0
s(g5
g93
tp861
I0
s(g43
g34
tp862
I0
s(g8
g102
tp863
I0
s(g16
g28
tp864
I0
s(g34
g54
tp865
I0
s(g48
g25
tp866
I0
s(g59
g64
tp867
I0
s(g28
g11
tp868
F0.5714285714285714
s(g34
g28
tp869
I0
s(g2
g48
tp870
I0
s(g85
g3
tp871
I0
s(g39
g10
tp872
I0
s(g43
g19
tp873
I0
s(g54
g5
tp874
I0
s(g67
g22
tp875
I0
s(g13
g10
tp876
I0
s(g72
g24
tp877
I0
s(g22
g22
tp878
F0.6428571428571429
s(g32
g19
tp879
I0
s(g39
g32
tp880
I0
s(g21
g2
tp881
I0
s(g10
g5
tp882
I0
s(g50
g78
tp883
I0
s(g22
g37
tp884
I0
s(g59
g61
tp885
I0
s(g64
g21
tp886
I0
s(g24
g13
tp887
I0
s(g50
g68
tp888
I0
s(g37
g22
tp889
I0
s(g30
g50
tp890
I0
s(g57
g8
tp891
I0
s(g11
g68
tp892
I0
s(g18
g28
tp893
I0
s(g3
g85
tp894
I0
s(g85
g10
tp895
I0
s(g67
g3
tp896
I0
s(g50
g67
tp897
I0
s(g72
g2
tp898
I0
s(g18
g14
tp899
I0
s(g85
g93
tp900
I0
s(g28
g25
tp901
I0
s(g25
g61
tp902
I0
s(g30
g28
tp903
I0
s(g2
g59
tp904
I0
s(g74
g61
tp905
I0
s(g72
g10
tp906
I0
s(g7
g10
tp907
I0
s(g5
g61
tp908
I0
s(g102
g21
tp909
I0
s(g48
g45
tp910
I0
s(g28
g19
tp911
I0
s(g14
g35
tp912
I0
s(g19
g18
tp913
I0
s(g45
g43
tp914
I0
s(g2
g67
tp915
I0
s(g68
g64
tp916
I0
s(g43
g14
tp917
I0
s(g48
g68
tp918
I0
s(g28
g48
tp919
I0
s(g78
g64
tp920
I0
s(g52
g8
tp921
I0
s(g8
g74
tp922
I0
s(g50
g61
tp923
I0
s(g64
g22
tp924
I0
s(g13
g48
tp925
I0
s(g21
g8
tp926
I0
s(g32
g14
tp927
F0.5714285714285714
s(g2
g68
tp928
I0
s(g39
g24
tp929
I0
s(g93
g72
tp930
I0
s(g22
g48
tp931
I0
s(g68
g10
tp932
I0
s(g3
g39
tp933
I0
s(g16
g30
tp934
I0
s(g25
g14
tp935
I0
s(g61
g8
tp936
I0
s(g72
g74
tp937
I0
s(g19
g3
tp938
I0
s(g57
g93
tp939
I0
s(g61
g72
tp940
I0
s(g28
g5
tp941
I0
s(g8
g2
tp942
I0
s(g3
g43
tp943
I0
s(g45
g57
tp944
I0
s(g68
g54
tp945
I0
s(g67
g21
tp946
I0
s(g25
g24
tp947
I0
s(g102
g8
tp948
I0
s(g102
g22
tp949
I0
s(g57
g78
tp950
I0
s(g67
g64
tp951
I0
s(g45
g67
tp952
I0
s(g85
g72
tp953
I0
s(g14
g39
tp954
I0
s(g2
g52
tp955
I0
s(g19
g48
tp956
I0
s(g25
g59
tp957
I0
s(g39
g61
tp958
I0
s(g39
g54
tp959
I0
s(g8
g30
tp960
I0
s(g68
g8
tp961
I0
s(g78
g85
tp962
I0
s(g21
g37
tp963
I0
s(g24
g39
tp964
I0
s(g50
g64
tp965
I0
s(g13
g50
tp966
I0
s(g14
g14
tp967
F0.99106673673147661
s(g5
g54
tp968
I0
s(g57
g35
tp969
F0.52173913043478259
s(g13
g22
tp970
I0
s(g30
g64
tp971
I0
s(g30
g8
tp972
I0
s(g50
g16
tp973
I0
s(g7
g22
tp974
I0
s(g52
g10
tp975
I0
s(g34
g22
tp976
I0
s(g43
g30
tp977
I0
s(g67
g28
tp978
I0
s(g52
g18
tp979
I0
s(g85
g78
tp980
I0
s(g54
g11
tp981
I0
s(g72
g68
tp982
I0
s(g43
g10
tp983
I0
s(g21
g85
tp984
I0
s(g50
g48
tp985
I0
s(g68
g5
tp986
I0
s(g10
g45
tp987
I0
s(g7
g61
tp988
I0
s(g43
g93
tp989
I0
s(g11
g67
tp990
I0
s(g72
g35
tp991
I0
s(g25
g52
tp992
I0
s(g54
g61
tp993
I0
s(g8
g5
tp994
I0
s(g78
g10
tp995
I0
s(g11
g74
tp996
I0
s(g7
g16
tp997
I0
s(g52
g21
tp998
I0
s(g93
g16
tp999
I0
s(g11
g34
tp1000
I0
s(g50
g93
tp1001
I0
s(g39
g8
tp1002
I0
s(g37
g3
tp1003
I0
s(g61
g28
tp1004
I0
s(g48
g16
tp1005
I0
s(g19
g8
tp1006
I0
s(g7
g14
tp1007
I0
s(g48
g5
tp1008
I0
s(g54
g22
tp1009
I0
s(g64
g74
tp1010
I0
s(g24
g34
tp1011
I0
s(g68
g48
tp1012
I0
s(g61
g5
tp1013
I0
s(g35
g25
tp1014
I0
s(g5
g74
tp1015
I0
s(g45
g10
tp1016
I0
s(g57
g14
tp1017
I0
s(g35
g67
tp1018
I0
s(g14
g13
tp1019
I0
s(g5
g67
tp1020
I0
s(g93
g45
tp1021
I0
s(g54
g19
tp1022
I0
s(g16
g8
tp1023
I0
s(g7
g54
tp1024
I0
s(g68
g28
tp1025
I0
s(g25
g50
tp1026
I0
s(g78
g45
tp1027
I0
s(g22
g74
tp1028
I0
s(g57
g16
tp1029
I0
s(g102
g74
tp1030
I0
s(g8
g25
tp1031
I0
s(g52
g2
tp1032
I0
s(g25
g35
tp1033
I0
s(g10
g30
tp1034
I0
s(g37
g35
tp1035
I0
s(g8
g85
tp1036
I0
s(g34
g19
tp1037
F0.5714285714285714
s(g21
g78
tp1038
I0
s(g22
g50
tp1039
I0
s(g74
g78
tp1040
I0
s(g10
g54
tp1041
I0
s(g2
g64
tp1042
I0
s(g64
g24
tp1043
I0
s(g45
g14
tp1044
I0
s(g93
g10
tp1045
I0
s(g16
g25
tp1046
I0
s(g5
g18
tp1047
I0
s(g5
g64
tp1048
I0
s(g3
g5
tp1049
I0
s(g52
g16
tp1050
I0
s(g32
g57
tp1051
I0
s(g7
g18
tp1052
F0.52173913043478259
s(g32
g18
tp1053
I0
s(g54
g14
tp1054
I0
s(g35
g21
tp1055
I0
s(g67
g37
tp1056
I0
s(g28
g8
tp1057
I0
s(g78
g102
tp1058
I0
s(g21
g57
tp1059
I0
s(g14
g85
tp1060
I0
s(g5
g45
tp1061
I0
s(g14
g50
tp1062
I0
s(g19
g78
tp1063
I0
s(g78
g25
tp1064
I0
s(g8
g67
tp1065
I0
s(g85
g30
tp1066
I0
s(g72
g102
tp1067
F0.54545454545454541
s(g14
g37
tp1068
F0.0089332632685233844
s(g10
g85
tp1069
I0
s(g59
g8
tp1070
I0
s(g25
g21
tp1071
I0
s(g13
g64
tp1072
I0
s(g37
g67
tp1073
I0
s(g67
g14
tp1074
I0
s(g50
g14
tp1075
I0
s(g8
g34
tp1076
I0
s(g10
g39
tp1077
I0
s(g59
g18
tp1078
I0
s(g16
g54
tp1079
I0
s(g72
g39
tp1080
I0
s(g61
g32
tp1081
I0
s(g10
g72
tp1082
I0
s(g102
g39
tp1083
I0
s(g5
g5
tp1084
F0.45454545454545453
s(g25
g2
tp1085
I0
s(g74
g24
tp1086
I0
s(g18
g57
tp1087
I0
s(g34
g10
tp1088
I0
s(g25
g93
tp1089
I0
s(g50
g50
tp1090
F0.52000000000000002
s(g35
g54
tp1091
I0
s(g78
g43
tp1092
I0
s(g11
g21
tp1093
I0
s(g16
g68
tp1094
I0
s(g48
g11
tp1095
I0
s(g39
g57
tp1096
I0
s(g78
g57
tp1097
I0
s(g22
g28
tp1098
I0
s(g57
g11
tp1099
I0
s(g59
g37
tp1100
I0
s(g85
g85
tp1101
F0.42857142857142855
s(g85
g50
tp1102
I0
s(g14
g34
tp1103
I0
s(g64
g48
tp1104
I0
s(g24
g22
tp1105
F0.25
s(g24
g21
tp1106
I0
s(g32
g67
tp1107
I0
s(g37
g11
tp1108
I0
s(g68
g32
tp1109
I0
s(g11
g13
tp1110
I0
s(g39
g16
tp1111
I0
s(g74
g37
tp1112
I0
s(g50
g102
tp1113
I0
s(g102
g16
tp1114
F0.5
s(g19
g43
tp1115
I0
s(g52
g30
tp1116
I0
s(g85
g68
tp1117
I0
s(g21
g43
tp1118
I0
s(g37
g43
tp1119
I0
s(g10
g64
tp1120
I0
s(g45
g52
tp1121
I0
s(g85
g102
tp1122
I0
s(g21
g14
tp1123
I0
s(g52
g25
tp1124
I0
s(g74
g93
tp1125
I0
s(g16
g74
tp1126
I0
s(g67
g7
tp1127
I0
s(g68
g52
tp1128
I0
s(g2
g11
tp1129
I0
s(g50
g10
tp1130
I0
s(g19
g45
tp1131
I0
s(g34
g14
tp1132
I0
s(g30
g2
tp1133
I0
s(g18
g34
tp1134
I0
s(g34
g74
tp1135
I0
s(g85
g39
tp1136
I0
s(g50
g35
tp1137
I0
s(g72
g67
tp1138
I0
s(g25
g39
tp1139
I0
s(g14
g74
tp1140
I0
s(g74
g48
tp1141
I0
s(g2
g61
tp1142
I0
s(g19
g34
tp1143
I0
s(g102
g24
tp1144
I0
s(g8
g68
tp1145
I0
s(g54
g59
tp1146
I0
s(g21
g59
tp1147
I0
s(g68
g61
tp1148
I0
s(g21
g34
tp1149
I0
s(g102
g30
tp1150
I0
s(g10
g8
tp1151
F0.54545454545454541
s(g52
g43
tp1152
I0
s(g3
g24
tp1153
I0
s(g54
g93
tp1154
I0
s(g67
g102
tp1155
I0
s(g10
g48
tp1156
I0
s(g34
g16
tp1157
I0
s(g37
g19
tp1158
I0
s(g3
g52
tp1159
I0
s(g2
g22
tp1160
I0
s(g21
g35
tp1161
I0
s(g32
g64
tp1162
I0
s(g30
g22
tp1163
I0
s(g54
g48
tp1164
I0
s(g3
g13
tp1165
I0
s(g7
g57
tp1166
I0
s(g18
g54
tp1167
I0
s(g68
g11
tp1168
I0
s(g39
g52
tp1169
I0
s(g74
g72
tp1170
I0
s(g2
g43
tp1171
I0
s(g19
g10
tp1172
I0
s(g28
g30
tp1173
I0
s(g5
g43
tp1174
I0
s(g14
g78
tp1175
I0
s(g24
g30
tp1176
I0
s(g85
g25
tp1177
I0
s(g2
g57
tp1178
I0
s(g64
g72
tp1179
I0
s(g16
g43
tp1180
I0
s(g61
g61
tp1181
F0.45454545454545453
s(g64
g39
tp1182
I0
s(g24
g24
tp1183
F0.75
s(g93
g50
tp1184
I0
s(g5
g39
tp1185
I0
s(g43
g59
tp1186
I0
s(g22
g35
tp1187
I0
s(g32
g10
tp1188
I0
s(g48
g22
tp1189
I0
s(g48
g64
tp1190
I0
s(g39
g37
tp1191
I0
s(g61
g74
tp1192
I0
s(g78
g11
tp1193
I0
s(g19
g64
tp1194
I0
s(g21
g61
tp1195
I0
s(g72
g21
tp1196
I0
s(g32
g54
tp1197
I0
s(g8
g14
tp1198
I0
s(g18
g21
tp1199
I0
s(g30
g5
tp1200
I0
s(g22
g10
tp1201
I0
s(g61
g25
tp1202
I0
s(g52
g24
tp1203
I0
s(g25
g68
tp1204
I0
s(g45
g3
tp1205
I0
s(g59
g78
tp1206
F0.01646090534979424
s(g37
g14
tp1207
F0.0024122219244170464
s(g61
g3
tp1208
I0
s(g10
g25
tp1209
I0
s(g34
g25
tp1210
I0
s(g35
g72
tp1211
F0.66666666666666663
s(g30
g10
tp1212
I0
s(g7
g19
tp1213
I0
s(g3
g30
tp1214
I0
s(g28
g10
tp1215
I0
s(g2
g24
tp1216
I0
s(g16
g11
tp1217
I0
s(g28
g13
tp1218
I0
s(g19
g19
tp1219
F0.45454545454545453
s(g37
g5
tp1220
I0
s(g61
g45
tp1221
I0
s(g57
g25
tp1222
I0
s(g93
g48
tp1223
I0
s(g35
g14
tp1224
I0
s(g28
g59
tp1225
I0
s(g19
g59
tp1226
I0
s(g78
g61
tp1227
I0
s(g32
g21
tp1228
I0
s(g28
g18
tp1229
I0
s(g61
g18
tp1230
I0
s(g93
g8
tp1231
I0
s(g2
g85
tp1232
I0
s(g48
g28
tp1233
I0
s(g24
g102
tp1234
I0
s(g64
g2
tp1235
I0
s(g28
g24
tp1236
I0
s(g78
g19
tp1237
I0
s(g85
g64
tp1238
I0
s(g13
g45
tp1239
I0
s(g45
g93
tp1240
I0
s(g25
g5
tp1241
I0
s(g93
g61
tp1242
I0
s(g14
g45
tp1243
I0
s(g74
g52
tp1244
F0.5
s(g21
g18
tp1245
I0
s(g25
g85
tp1246
I0
s(g28
g2
tp1247
I0
s(g35
g30
tp1248
I0
s(g22
g52
tp1249
I0
s(g7
g43
tp1250
I0
s(g16
g2
tp1251
I0
s(g3
g78
tp1252
I0
s(g5
g21
tp1253
I0
s(g50
g57
tp1254
I0
s(g61
g19
tp1255
I0
s(g18
g25
tp1256
I0
s(g39
g78
tp1257
I0
s(g61
g35
tp1258
I0
s(g7
g11
tp1259
I0
s(g30
g19
tp1260
I0
s(g35
g13
tp1261
I0
s(g19
g13
tp1262
I0
s(g8
g13
tp1263
I0
s(g5
g24
tp1264
I0
s(g8
g45
tp1265
I0
s(g54
g52
tp1266
I0
s(g37
g25
tp1267
I0
s(g39
g48
tp1268
I0
s(g59
g45
tp1269
I0
s(g72
g28
tp1270
I0
s(g3
g93
tp1271
I0
s(g24
g14
tp1272
I0
s(g2
g39
tp1273
I0
s(g28
g54
tp1274
I0
s(g30
g72
tp1275
I0
s(g19
g24
tp1276
I0
s(g28
g32
tp1277
I0
s(g30
g16
tp1278
I0
s(g45
g78
tp1279
I0
s(g64
g8
tp1280
I0
s(g32
g50
tp1281
I0
s(g43
g25
tp1282
I0
s(g43
g3
tp1283
I0
s(g18
g13
tp1284
F0.59999999999999998
s(g32
g35
tp1285
I0
s(g61
g54
tp1286
I0
s(g78
g3
tp1287
I0
s(g50
g21
tp1288
I0
s(g25
g57
tp1289
I0
s(g85
g67
tp1290
I0
s(g85
g59
tp1291
I0
s(g21
g10
tp1292
I0
s(g34
g21
tp1293
I0
s(g48
g61
tp1294
I0
s(g72
g85
tp1295
I0
s(g32
g28
tp1296
I0
s(g16
g39
tp1297
I0
s(g93
g78
tp1298
I0
s(g7
g3
tp1299
I0
s(g3
g61
tp1300
I0
s(g43
g48
tp1301
I0
s(g64
g64
tp1302
F0.40000000000000002
s(g50
g24
tp1303
I0
s(g93
g28
tp1304
I0
s(g85
g32
tp1305
I0
s(g78
g22
tp1306
I0
s(g102
g18
tp1307
I0
s(g93
g64
tp1308
I0
s(g11
g57
tp1309
I0
s(g74
g39
tp1310
I0
s(g22
g57
tp1311
I0
s(g52
g14
tp1312
I0
s(g5
g34
tp1313
I0
s(g30
g34
tp1314
I0
s(g28
g16
tp1315
I0
s(g59
g22
tp1316
I0
s(g3
g8
tp1317
I0
s(g22
g8
tp1318
I0
s(g61
g11
tp1319
I0
s(g57
g57
tp1320
F0.47826086956521741
s(g32
g85
tp1321
I0
s(g102
g11
tp1322
I0
s(g39
g39
tp1323
F0.47826086956521741
s(g39
g21
tp1324
I0
s(g21
g45
tp1325
I0
s(g22
g85
tp1326
I0
s(g13
g85
tp1327
I0
s(g57
g3
tp1328
I0
s(g28
g68
tp1329
I0
s(g14
g57
tp1330
I0
s(g93
g30
tp1331
I0
s(g57
g68
tp1332
I0
s(g8
g28
tp1333
F0.52173913043478259
s(g68
g57
tp1334
I0
s(g61
g43
tp1335
I0
s(g54
g2
tp1336
I0
s(g13
g39
tp1337
F0.52173913043478259
s(g28
g35
tp1338
I0
s(g35
g85
tp1339
I0
s(g14
g2
tp1340
I0
s(g85
g21
tp1341
I0
s(g13
g72
tp1342
I0
s(g8
g22
tp1343
I0
s(g34
g3
tp1344
I0
s(g52
g45
tp1345
I0
s(g22
g68
tp1346
I0
s(g45
g16
tp1347
I0
s(g39
g28
tp1348
I0
s(g35
g8
tp1349
I0
s(g102
g28
tp1350
I0
s(g16
g50
tp1351
I0
s(g30
g74
tp1352
I0
s(g25
g32
tp1353
I0
s(g8
g21
tp1354
I0
s(g43
g16
tp1355
I0
s(g64
g85
tp1356
I0
s(g37
g85
tp1357
I0
s(g10
g50
tp1358
I0
s(g72
g32
tp1359
I0
s(g34
g78
tp1360
I0
s(g14
g28
tp1361
I0
s(g25
g45
tp1362
I0
s(g35
g64
tp1363
I0
s(g74
g85
tp1364
I0
s(g34
g64
tp1365
I0
s(g18
g32
tp1366
I0
s(g67
g57
tp1367
I0
s(g16
g7
tp1368
F0.70588235294117652
s(g16
g59
tp1369
I0
s(g19
g5
tp1370
I0
s(g68
g43
tp1371
F0.0020891364902506965
s(g93
g21
tp1372
I0
s(g7
g64
tp1373
I0
s(g54
g72
tp1374
I0
s(g5
g72
tp1375
I0
s(g85
g57
tp1376
I0
s(g30
g35
tp1377
I0
s(g85
g54
tp1378
I0
s(g59
g54
tp1379
I0
s(g19
g32
tp1380
I0
s(g11
g85
tp1381
I0
s(g52
g35
tp1382
I0
s(g67
g54
tp1383
I0
s(g93
g13
tp1384
I0
s(g14
g21
tp1385
I0
s(g11
g8
tp1386
I0
s(g102
g3
tp1387
I0
s(g52
g64
tp1388
F0.5
s(g16
g72
tp1389
I0
s(g54
g74
tp1390
I0
s(g35
g3
tp1391
I0
s(g64
g30
tp1392
I0
s(g24
g16
tp1393
I0
s(g48
g48
tp1394
F0.53846153846153844
s(g32
g32
tp1395
F0.42857142857142855
s(g5
g7
tp1396
I0
s(g24
g7
tp1397
I0
s(g37
g61
tp1398
I0
s(g64
g68
tp1399
I0
s(g16
g5
tp1400
I0
s(g7
g48
tp1401
I0
s(g35
g28
tp1402
I0
s(g48
g2
tp1403
I0
s(g93
g37
tp1404
I0
s(g59
g28
tp1405
I0
s(g5
g16
tp1406
I0
s(g57
g2
tp1407
I0
s(g102
g102
tp1408
F0.5
s(g50
g3
tp1409
I0
s(g14
g5
tp1410
I0
s(g85
g48
tp1411
I0
s(g74
g18
tp1412
I0
s(g37
g64
tp1413
I0
s(g57
g34
tp1414
I0
s(g16
g61
tp1415
I0
s(g43
g32
tp1416
I0
s(g11
g5
tp1417
I0
s(g8
g64
tp1418
I0
s(g16
g52
tp1419
I0
s(g35
g7
tp1420
I0
s(g59
g7
tp1421
I0
s(g30
g39
tp1422
I0
s(g35
g39
tp1423
I0
s(g72
g11
tp1424
I0
s(g61
g14
tp1425
I0
s(g52
g57
tp1426
I0
s(g19
g21
tp1427
I0
s(g8
g48
tp1428
I0
s(g14
g10
tp1429
I0
s(g43
g74
tp1430
I0
s(g32
g61
tp1431
I0
s(g11
g28
tp1432
I0
s(g24
g35
tp1433
I0
s(g68
g85
tp1434
I0
s(g45
g7
tp1435
I0
s(g30
g14
tp1436
I0
s(g21
g25
tp1437
I0
s(g34
g8
tp1438
I0
s(g39
g64
tp1439
I0
s(g18
g61
tp1440
I0
s(g78
g93
tp1441
I0
s(g14
g64
tp1442
I0
s(g10
g19
tp1443
I0
s(g14
g8
tp1444
I0
s(g32
g102
tp1445
I0
s(g85
g61
tp1446
I0
s(g24
g93
tp1447
I0
s(g35
g5
tp1448
I0
s(g18
g16
tp1449
I0
s(g14
g48
tp1450
I0
s(g22
g21
tp1451
I0
s(g43
g21
tp1452
I0
s(g54
g35
tp1453
I0
s(g78
g59
tp1454
F0.0036706869428421605
s(g57
g48
tp1455
I0
s(g72
g61
tp1456
I0
s(g59
g67
tp1457
I0
s(g5
g10
tp1458
I0
s(g7
g50
tp1459
I0
s(g78
g34
tp1460
I0
s(g43
g13
tp1461
I0
s(g102
g5
tp1462
I0
s(g28
g74
tp1463
I0
s(g3
g2
tp1464
I0
s(g72
g7
tp1465
I0
s(g24
g18
tp1466
I0
s(g72
g50
tp1467
I0
s(g13
g25
tp1468
I0
s(g5
g102
tp1469
I0
s(g21
g93
tp1470
F0.54545454545454541
s(g28
g57
tp1471
I0
s(g72
g22
tp1472
I0
s(g22
g78
tp1473
I0
s(g8
g19
tp1474
I0
s(g10
g61
tp1475
I0
s(g3
g57
tp1476
I0
s(g21
g50
tp1477
I0
s(g74
g22
tp1478
I0
s(g74
g43
tp1479
I0
s(g43
g54
tp1480
I0
s(g22
g43
tp1481
I0
s(g50
g34
tp1482
I0
s(g11
g45
tp1483
I0
s(g45
g21
tp1484
F0.47999999999999998
s(g14
g72
tp1485
I0
s(g102
g19
tp1486
I0
s(g21
g48
tp1487
I0
s(g39
g19
tp1488
I0
s(g37
g10
tp1489
I0
s(g5
g85
tp1490
I0
s(g59
g35
tp1491
I0
s(g16
g37
tp1492
I0
s(g14
g67
tp1493
I0
s(g30
g13
tp1494
I0
s(g52
g93
tp1495
I0
s(g5
g8
tp1496
I0
s(g32
g34
tp1497
I0
s(g45
g39
tp1498
I0
s(g54
g43
tp1499
I0
s(g13
g11
tp1500
I0
s(g85
g14
tp1501
I0
s(g37
g54
tp1502
I0
s(g57
g19
tp1503
I0
s(g78
g50
tp1504
I0
s(g34
g32
tp1505
I0
s(g22
g13
tp1506
I0
s(g72
g30
tp1507
I0
s(g10
g28
tp1508
I0
s(g54
g24
tp1509
I0
s(g8
g52
tp1510
I0
s(g59
g85
tp1511
I0
s(g7
g74
tp1512
I0
s(g57
g32
tp1513
I0
s(g2
g28
tp1514
I0
s(g19
g37
tp1515
I0
s(g37
g59
tp1516
I0
s(g22
g102
tp1517
I0
s(g54
g25
tp1518
I0
s(g16
g93
tp1519
I0
s(g102
g2
tp1520
I0
s(g11
g14
tp1521
I0
s(g93
g14
tp1522
I0
s(g34
g2
tp1523
I0
s(g32
g37
tp1524
I0
s(g2
g7
tp1525
I0
s(g19
g67
tp1526
I0
s(g3
g74
tp1527
I0
s(g85
g18
tp1528
I0
s(g14
g52
tp1529
I0
s(g21
g19
tp1530
I0
s(g102
g35
tp1531
I0
s(g39
g35
tp1532
I0
s(g30
g32
tp1533
I0
s(g45
g64
tp1534
I0
s(g35
g78
tp1535
I0
s(g78
g18
tp1536
I0
s(g18
g68
tp1537
I0
s(g43
g50
tp1538
I0
s(g43
g8
tp1539
I0
s(g5
g25
tp1540
I0
s(g72
g13
tp1541
I0
s(g18
g24
tp1542
I0
s(g19
g68
tp1543
I0
s(g52
g102
tp1544
I0
s(g7
g67
tp1545
I0
s(g30
g37
tp1546
I0
s(g3
g16
tp1547
I0
s(g11
g59
tp1548
I0
s(g7
g2
tp1549
I0
s(g61
g21
tp1550
I0
s(g68
g35
tp1551
I0
s(g28
g37
tp1552
I0
s(g2
g50
tp1553
I0
s(g24
g54
tp1554
I0
s(g85
g28
tp1555
I0
s(g85
g13
tp1556
I0
s(g3
g14
tp1557
I0
s(g43
g102
tp1558
I0
s(g10
g59
tp1559
I0
s(g37
g30
tp1560
I0
s(g61
g16
tp1561
I0
s(g68
g3
tp1562
I0
s(g48
g43
tp1563
I0
s(g34
g72
tp1564
I0
s(g50
g13
tp1565
I0
s(g50
g11
tp1566
I0
s(g19
g50
tp1567
F0.54545454545454541
s(g43
g39
tp1568
I0
s(g28
g7
tp1569
I0
s(g8
g35
tp1570
I0
s(g67
g5
tp1571
I0
s(g30
g21
tp1572
I0
s(g50
g32
tp1573
I0
s(g54
g16
tp1574
I0
s(g7
g93
tp1575
I0
s(g34
g43
tp1576
I0
s(g78
g39
tp1577
I0
s(g7
g24
tp1578
I0
s(g22
g7
tp1579
I0
s(g16
g67
tp1580
I0
s(g68
g16
tp1581
I0
s(g54
g64
tp1582
I0
s(g102
g59
tp1583
I0
s(g102
g67
tp1584
I0
s(g30
g18
tp1585
I0
s(g93
g25
tp1586
I0
s(g11
g30
tp1587
I0
s(g74
g3
tp1588
I0
s(g19
g102
tp1589
I0
s(g18
g48
tp1590
I0
s(g57
g28
tp1591
I0
s(g102
g32
tp1592
I0
s(g35
g37
tp1593
I0
s(g3
g3
tp1594
F0.64000000000000001
s(g39
g22
tp1595
I0
s(g67
g11
tp1596
I0
s(g37
g13
tp1597
I0
s(g16
g57
tp1598
I0
s(g93
g19
tp1599
I0
s(g72
g34
tp1600
I0
s(g34
g13
tp1601
I0
s(g43
g18
tp1602
I0
s(g45
g25
tp1603
I0
s(g13
g102
tp1604
I0
s(g35
g74
tp1605
I0
s(g50
g72
tp1606
I0
s(g67
g50
tp1607
I0
s(g28
g78
tp1608
I0
s(g8
g39
tp1609
I0
s(g13
g67
tp1610
I0
s(g78
g16
tp1611
I0
s(g5
g35
tp1612
I0
s(g28
g64
tp1613
I0
s(g68
g24
tp1614
I0
s(g78
g54
tp1615
I0
s(g43
g45
tp1616
I0
s(g3
g19
tp1617
I0
s(g64
g61
tp1618
I0
s(g93
g3
tp1619
I0
s(g5
g13
tp1620
I0
s(g93
g67
tp1621
I0
s(g50
g85
tp1622
I0
s(g39
g25
tp1623
I0
s(g30
g48
tp1624
I0
s(g93
g5
tp1625
I0
s(g64
g67
tp1626
I0
s(g68
g72
tp1627
I0
s(g3
g25
tp1628
I0
s(g30
g78
tp1629
I0
s(g7
g39
tp1630
I0
s(g10
g34
tp1631
I0
s(g59
g32
tp1632
I0
s(g61
g7
tp1633
I0
s(g34
g30
tp1634
I0
s(g45
g22
tp1635
I0
s(g54
g21
tp1636
I0
s(g21
g16
tp1637
I0
s(g25
g102
tp1638
I0
s(g28
g93
tp1639
I0
s(g64
g10
tp1640
I0
s(g43
g28
tp1641
I0
s(g61
g24
tp1642
I0
s(g37
g45
tp1643
I0
s(g72
g78
tp1644
I0
s(g24
g61
tp1645
I0
s(g68
g19
tp1646
I0
s(g32
g22
tp1647
I0
s(g43
g64
tp1648
I0
s(g45
g18
tp1649
I0
s(g52
g11
tp1650
I0
s(g93
g85
tp1651
I0
s(g67
g39
tp1652
I0
s(g102
g64
tp1653
I0
s(g37
g102
tp1654
I0
s(g61
g93
tp1655
I0
s(g48
g85
tp1656
F0.46153846153846156
s(g32
g25
tp1657
I0
s(g11
g61
tp1658
I0
s(g78
g74
tp1659
I0
s(g25
g7
tp1660
I0
s(g37
g39
tp1661
I0
s(g39
g45
tp1662
I0
s(g102
g43
tp1663
I0
s(g50
g25
tp1664
I0
s(g59
g57
tp1665
I0
s(g57
g72
tp1666
I0
s(g74
g14
tp1667
I0
s(g3
g45
tp1668
F0.35999999999999999
s(g35
g102
tp1669
I0
s(g102
g37
tp1670
I0
s(g3
g67
tp1671
I0
s(g22
g54
tp1672
I0
s(g39
g68
tp1673
I0
s(g74
g50
tp1674
I0
s(g64
g13
tp1675
I0
s(g7
g78
tp1676
I0
s(g7
g72
tp1677
I0
s(g34
g59
tp1678
I0
s(g52
g22
tp1679
I0
s(g24
g68
tp1680
I0
s(g48
g78
tp1681
I0
s(g52
g74
tp1682
I0
s(g68
g93
tp1683
I0
s(g61
g22
tp1684
I0
s(g48
g24
tp1685
I0
s(g11
g50
tp1686
I0
s(g102
g25
tp1687
I0
s(g35
g61
tp1688
I0
s(g21
g74
tp1689
I0
s(g30
g45
tp1690
I0
s(g19
g16
tp1691
I0
s(g68
g14
tp1692
I0
s(g52
g52
tp1693
F0.5
s(g32
g39
tp1694
I0
s(g11
g64
tp1695
I0
s(g18
g3
tp1696
I0
s(g14
g25
tp1697
I0
s(g13
g61
tp1698
I0
s(g72
g52
tp1699
I0
s(g43
g67
tp1700
I0
s(g34
g34
tp1701
F0.42857142857142855
s(g74
g8
tp1702
I0
s(g37
g78
tp1703
I0
s(g8
g16
tp1704
I0
s(g48
g57
tp1705
I0
s(g18
g52
tp1706
I0
s(g72
g8
tp1707
I0
s(g102
g57
tp1708
I0
s(g45
g68
tp1709
I0
s(g37
g34
tp1710
I0
s(g54
g57
tp1711
F0.59999999999999998
s(g35
g43
tp1712
I0
s(g85
g52
tp1713
I0
s(g68
g21
tp1714
I0
s(g19
g14
tp1715
I0
s(g10
g57
tp1716
I0
s(g59
g24
tp1717
I0
s(g78
g52
tp1718
I0
s(g19
g61
tp1719
I0
s(g5
g52
tp1720
I0
s(g30
g52
tp1721
I0
s(g35
g50
tp1722
I0
s(g67
g85
tp1723
I0
s.